; Function Attrs: nounwind uwtable
define dso_local void @sema_erase_var(ptr nocapture noundef %0, ptr nocapture noundef readonly %1) local_unnamed_addr #2 {
  %3 = tail call noundef ptr @vmem_alloc(ptr noundef nonnull @decl_arena, i64 noundef 136) #10
  tail call void @llvm.memcpy.p0.p0.i64(ptr noundef nonnull align 8 dereferenceable(136) %3, ptr noundef nonnull align 8 dereferenceable(136) %1, i64 136, i1 false)
  %4 = getelementptr inbounds i8, ptr %3, i64 80
  %5 = load i32, ptr %4, align 8
  %6 = and i32 %5, -256
  %7 = or disjoint i32 %6, 9
  store i32 %7, ptr %4, align 8
  %8 = getelementptr inbounds i8, ptr %3, i64 24
  %9 = load i64, ptr %8, align 8
  %10 = and i64 %9, -897
  %11 = or disjoint i64 %10, 256
  store i64 %11, ptr %8, align 8
  %12 = getelementptr inbounds i8, ptr %0, i64 240
  %13 = load ptr, ptr %12, align 8
  %.not.i = icmp eq ptr %13, null
  br i1 %.not.i, label %.thread.i, label %17

.thread.i:                                        ; preds = %2
  %14 = getelementptr inbounds i8, ptr %0, i64 264
  %15 = load i32, ptr %14, align 8
  %16 = zext i32 %15 to i64
  br label %.preheader.preheader.i

17:                                               ; preds = %2
  %18 = getelementptr inbounds i8, ptr %13, i64 -8
  %19 = load i32, ptr %18, align 4
  %20 = zext i32 %19 to i64
  %21 = getelementptr inbounds i8, ptr %0, i64 264
  %22 = load i32, ptr %21, align 8
  %23 = zext i32 %22 to i64
  %.not31.i = icmp ugt i32 %19, %22
  br i1 %.not31.i, label %59, label %.preheader.preheader.i

.preheader.preheader.i:                           ; preds = %17, %.thread.i
  %24 = phi i64 [ %16, %.thread.i ], [ %23, %17 ]
  %25 = phi ptr [ %14, %.thread.i ], [ %21, %17 ]
  %.037.i = phi i64 [ 0, %.thread.i ], [ %20, %17 ]
  br label %.preheader.i

.preheader.i:                                     ; preds = %50, %.preheader.preheader.i
  %.02634.i = phi i64 [ %58, %50 ], [ %.037.i, %.preheader.preheader.i ]
  %26 = load ptr, ptr %12, align 8
  %.not.i.i = icmp eq ptr %26, null
  br i1 %.not.i.i, label %27, label %30

27:                                               ; preds = %.preheader.i
  %28 = tail call ptr @calloc_arena(i64 noundef 72) #10
  %29 = getelementptr inbounds i8, ptr %28, i64 4
  store i32 8, ptr %29, align 4
  br label %32

30:                                               ; preds = %.preheader.i
  %31 = getelementptr inbounds i8, ptr %26, i64 -8
  %.phi.trans.insert.i.i = getelementptr inbounds i8, ptr %26, i64 -4
  %.pre.i.i = load i32, ptr %.phi.trans.insert.i.i, align 4
  br label %32

32:                                               ; preds = %30, %27
  %33 = phi i32 [ %.pre.i.i, %30 ], [ 8, %27 ]
  %.0.i.i = phi ptr [ %31, %30 ], [ %28, %27 ]
  %34 = load i32, ptr %.0.i.i, align 4
  %35 = icmp eq i32 %34, %33
  br i1 %35, label %36, label %50

36:                                               ; preds = %32
  %37 = getelementptr inbounds i8, ptr %.0.i.i, i64 4
  %38 = shl i32 %33, 1
  %39 = zext i32 %38 to i64
  %40 = shl nuw nsw i64 %39, 3
  %41 = or disjoint i64 %40, 8
  %42 = tail call ptr @calloc_arena(i64 noundef %41) #10
  %43 = getelementptr inbounds i8, ptr %42, i64 4
  store i32 %38, ptr %43, align 4
  %44 = load i32, ptr %37, align 4
  %45 = zext i32 %44 to i64
  %46 = shl nuw nsw i64 %45, 3
  %47 = add nuw nsw i64 %46, 8
  tail call void @llvm.memcpy.p0.p0.i64(ptr noundef nonnull align 4 dereferenceable(1) %42, ptr noundef nonnull align 4 dereferenceable(1) %.0.i.i, i64 %47, i1 false)
  %48 = load i32, ptr %43, align 4
  %49 = shl i32 %48, 1
  store i32 %49, ptr %43, align 4
  %.pre18.i.i = load i32, ptr %42, align 4
  br label %50

50:                                               ; preds = %36, %32
  %51 = phi i32 [ %.pre18.i.i, %36 ], [ %34, %32 ]
  %.1.i.i = phi ptr [ %42, %36 ], [ %.0.i.i, %32 ]
  %52 = add i32 %51, 1
  store i32 %52, ptr %.1.i.i, align 4
  %53 = getelementptr inbounds i8, ptr %.1.i.i, i64 8
  store ptr %53, ptr %12, align 8
  %54 = load i32, ptr %.1.i.i, align 4
  %55 = add i32 %54, -1
  %56 = zext i32 %55 to i64
  %57 = getelementptr inbounds ptr, ptr %53, i64 %56
  store ptr %3, ptr %57, align 8
  %58 = add nuw nsw i64 %.02634.i, 1
  %exitcond.not.i = icmp eq i64 %.02634.i, %24
  br i1 %exitcond.not.i, label %sema_append_local.exit, label %.preheader.i, !llvm.loop !33

59:                                               ; preds = %17
  %60 = getelementptr inbounds ptr, ptr %13, i64 %23
  store ptr %3, ptr %60, align 8
  br label %sema_append_local.exit

sema_append_local.exit:                           ; preds = %50, %59
  %61 = phi ptr [ %21, %59 ], [ %25, %50 ]
  %62 = load i32, ptr %61, align 8
  %63 = add i32 %62, 1
  store i32 %63, ptr %61, align 8
  ret void
}